target datalayout = "e-m:e-p270:32:32-p271:32:32-p272:64:64-i64:64-i128:128-f80:128-n8:16:32:64-S128"
target triple = "x86_64-pc-linux-gnu"

%struct.zone = type { ptr, i32, ptr, i64, ptr, ptr, i8, i8, i64, ptr, i64, %struct.rule, i64 }
%struct.rule = type { ptr, i32, ptr, i64, i64, i8, i8, i32, i32, i32, i32, i64, i8, i8, i8, i64, ptr, i8, i64 }

@.str.51 = private unnamed_addr constant [3 x i8] c"%s\00", align 1
@.str.172 = private unnamed_addr constant [41 x i8] c"%%z UT offset magnitude exceeds 99:59:59\00", align 1
@.str.173 = private unnamed_addr constant [3 x i8] c"%z\00", align 1

; Function Attrs: nounwind uwtable
define internal zeroext i1 @is_alpha(i8 noundef signext %0) #0 {
  %2 = alloca i1, align 1
  %3 = alloca i8, align 1
  store i8 %0, ptr %3, align 1
  %4 = load i8, ptr %3, align 1
  %5 = sext i8 %4 to i32
  switch i32 %5, label %6 [
    i32 65, label %7
    i32 66, label %7
    i32 67, label %7
    i32 68, label %7
    i32 69, label %7
    i32 70, label %7
    i32 71, label %7
    i32 72, label %7
    i32 73, label %7
    i32 74, label %7
    i32 75, label %7
    i32 76, label %7
    i32 77, label %7
    i32 78, label %7
    i32 79, label %7
    i32 80, label %7
    i32 81, label %7
    i32 82, label %7
    i32 83, label %7
    i32 84, label %7
    i32 85, label %7
    i32 86, label %7
    i32 87, label %7
    i32 88, label %7
    i32 89, label %7
    i32 90, label %7
    i32 97, label %7
    i32 98, label %7
    i32 99, label %7
    i32 100, label %7
    i32 101, label %7
    i32 102, label %7
    i32 103, label %7
    i32 104, label %7
    i32 105, label %7
    i32 106, label %7
    i32 107, label %7
    i32 108, label %7
    i32 109, label %7
    i32 110, label %7
    i32 111, label %7
    i32 112, label %7
    i32 113, label %7
    i32 114, label %7
    i32 115, label %7
    i32 116, label %7
    i32 117, label %7
    i32 118, label %7
    i32 119, label %7
    i32 120, label %7
    i32 121, label %7
    i32 122, label %7
  ]

6:                                                ; preds = %1
  store i1 false, ptr %2, align 1
  br label %8

7:                                                ; preds = %1, %1, %1, %1, %1, %1, %1, %1, %1, %1, %1, %1, %1, %1, %1, %1, %1, %1, %1, %1, %1, %1, %1, %1, %1, %1, %1, %1, %1, %1, %1, %1, %1, %1, %1, %1, %1, %1, %1, %1, %1, %1, %1, %1, %1, %1, %1, %1, %1, %1, %1, %1
  store i1 true, ptr %2, align 1
  br label %8

8:                                                ; preds = %7, %6
  %9 = load i1, ptr %2, align 1
  ret i1 %9
}

; Function Attrs: nounwind uwtable
define internal ptr @abbroffset(ptr noundef %0, i64 noundef %1) #0 {
  %3 = alloca ptr, align 8
  %4 = alloca ptr, align 8
  %5 = alloca i64, align 8
  %6 = alloca i8, align 1
  %7 = alloca i32, align 4
  %8 = alloca i32, align 4
  %9 = alloca i32, align 4
  %10 = alloca ptr, align 8
  store ptr %0, ptr %4, align 8
  store i64 %1, ptr %5, align 8
  call void @llvm.lifetime.start.p0(i64 1, ptr %6) #13
  store i8 43, ptr %6, align 1
  call void @llvm.lifetime.start.p0(i64 4, ptr %7) #13
  call void @llvm.lifetime.start.p0(i64 4, ptr %8) #13
  %11 = load i64, ptr %5, align 8
  %12 = icmp slt i64 %11, 0
  br i1 %12, label %13, label %16

13:                                               ; preds = %2
  %14 = load i64, ptr %5, align 8
  %15 = sub i64 0, %14
  store i64 %15, ptr %5, align 8
  store i8 45, ptr %6, align 1
  br label %16

16:                                               ; preds = %13, %2
  %17 = load i64, ptr %5, align 8
  %18 = srem i64 %17, 60
  %19 = trunc i64 %18 to i32
  store i32 %19, ptr %7, align 4
  %20 = load i64, ptr %5, align 8
  %21 = sdiv i64 %20, 60
  store i64 %21, ptr %5, align 8
  %22 = load i64, ptr %5, align 8
  %23 = srem i64 %22, 60
  %24 = trunc i64 %23 to i32
  store i32 %24, ptr %8, align 4
  %25 = load i64, ptr %5, align 8
  %26 = sdiv i64 %25, 60
  store i64 %26, ptr %5, align 8
  %27 = load i64, ptr %5, align 8
  %28 = icmp sle i64 100, %27
  br i1 %28, label %29, label %30

29:                                               ; preds = %16
  call void (ptr, ...) @error(ptr noundef @.str.172)
  store ptr @.str.173, ptr %3, align 8
  store i32 1, ptr %9, align 4
  br label %83

30:                                               ; preds = %16
  call void @llvm.lifetime.start.p0(i64 8, ptr %10) #13
  %31 = load ptr, ptr %4, align 8
  store ptr %31, ptr %10, align 8
  %32 = load i8, ptr %6, align 1
  %33 = load ptr, ptr %10, align 8
  %34 = getelementptr inbounds nuw i8, ptr %33, i32 1
  store ptr %34, ptr %10, align 8
  store i8 %32, ptr %33, align 1
  %35 = load i64, ptr %5, align 8
  %36 = sdiv i64 %35, 10
  %37 = add i64 48, %36
  %38 = trunc i64 %37 to i8
  %39 = load ptr, ptr %10, align 8
  %40 = getelementptr inbounds nuw i8, ptr %39, i32 1
  store ptr %40, ptr %10, align 8
  store i8 %38, ptr %39, align 1
  %41 = load i64, ptr %5, align 8
  %42 = srem i64 %41, 10
  %43 = add i64 48, %42
  %44 = trunc i64 %43 to i8
  %45 = load ptr, ptr %10, align 8
  %46 = getelementptr inbounds nuw i8, ptr %45, i32 1
  store ptr %46, ptr %10, align 8
  store i8 %44, ptr %45, align 1
  %47 = load i32, ptr %8, align 4
  %48 = load i32, ptr %7, align 4
  %49 = or i32 %47, %48
  %50 = icmp ne i32 %49, 0
  br i1 %50, label %51, label %80

51:                                               ; preds = %30
  %52 = load i32, ptr %8, align 4
  %53 = sdiv i32 %52, 10
  %54 = add i32 48, %53
  %55 = trunc i32 %54 to i8
  %56 = load ptr, ptr %10, align 8
  %57 = getelementptr inbounds nuw i8, ptr %56, i32 1
  store ptr %57, ptr %10, align 8
  store i8 %55, ptr %56, align 1
  %58 = load i32, ptr %8, align 4
  %59 = srem i32 %58, 10
  %60 = add i32 48, %59
  %61 = trunc i32 %60 to i8
  %62 = load ptr, ptr %10, align 8
  %63 = getelementptr inbounds nuw i8, ptr %62, i32 1
  store ptr %63, ptr %10, align 8
  store i8 %61, ptr %62, align 1
  %64 = load i32, ptr %7, align 4
  %65 = icmp ne i32 %64, 0
  br i1 %65, label %66, label %79

66:                                               ; preds = %51
  %67 = load i32, ptr %7, align 4
  %68 = sdiv i32 %67, 10
  %69 = add i32 48, %68
  %70 = trunc i32 %69 to i8
  %71 = load ptr, ptr %10, align 8
  %72 = getelementptr inbounds nuw i8, ptr %71, i32 1
  store ptr %72, ptr %10, align 8
  store i8 %70, ptr %71, align 1
  %73 = load i32, ptr %7, align 4
  %74 = srem i32 %73, 10
  %75 = add i32 48, %74
  %76 = trunc i32 %75 to i8
  %77 = load ptr, ptr %10, align 8
  %78 = getelementptr inbounds nuw i8, ptr %77, i32 1
  store ptr %78, ptr %10, align 8
  store i8 %76, ptr %77, align 1
  br label %79

79:                                               ; preds = %66, %51
  br label %80

80:                                               ; preds = %79, %30
  %81 = load ptr, ptr %10, align 8
  store i8 0, ptr %81, align 1
  %82 = load ptr, ptr %4, align 8
  store ptr %82, ptr %3, align 8
  store i32 1, ptr %9, align 4
  call void @llvm.lifetime.end.p0(i64 8, ptr %10) #13
  br label %83

83:                                               ; preds = %80, %29
  call void @llvm.lifetime.end.p0(i64 4, ptr %8) #13
  call void @llvm.lifetime.end.p0(i64 4, ptr %7) #13
  call void @llvm.lifetime.end.p0(i64 1, ptr %6) #13
  %84 = load ptr, ptr %3, align 8
  ret ptr %84
}

; Function Attrs: nounwind uwtable
define internal i64 @doabbr(ptr noundef %0, ptr noundef %1, ptr noundef %2, i1 noundef zeroext %3, i64 noundef %4, i1 noundef zeroext %5) #0 {
  %7 = alloca i64, align 8
  %8 = alloca ptr, align 8
  %9 = alloca ptr, align 8
  %10 = alloca ptr, align 8
  %11 = alloca i8, align 1
  %12 = alloca i64, align 8
  %13 = alloca i8, align 1
  %14 = alloca ptr, align 8
  %15 = alloca ptr, align 8
  %16 = alloca i64, align 8
  %17 = alloca ptr, align 8
  %18 = alloca [8 x i8], align 1
  %19 = alloca i32, align 4
  store ptr %0, ptr %8, align 8
  store ptr %1, ptr %9, align 8
  store ptr %2, ptr %10, align 8
  %20 = zext i1 %3 to i8
  store i8 %20, ptr %11, align 1
  store i64 %4, ptr %12, align 8
  %21 = zext i1 %5 to i8
  store i8 %21, ptr %13, align 1
  call void @llvm.lifetime.start.p0(i64 8, ptr %14) #13
  call void @llvm.lifetime.start.p0(i64 8, ptr %15) #13
  call void @llvm.lifetime.start.p0(i64 8, ptr %16) #13
  call void @llvm.lifetime.start.p0(i64 8, ptr %17) #13
  %22 = load ptr, ptr %9, align 8
  %23 = getelementptr inbounds nuw %struct.zone, ptr %22, i32 0, i32 5
  %24 = load ptr, ptr %23, align 8
  store ptr %24, ptr %17, align 8
  %25 = load ptr, ptr %17, align 8
  %26 = call ptr @strchr(ptr noundef %25, i32 noundef 47) #14
  store ptr %26, ptr %15, align 8
  %27 = load ptr, ptr %15, align 8
  %28 = icmp eq ptr %27, null
  br i1 %28, label %29, label %53

29:                                               ; preds = %6
  call void @llvm.lifetime.start.p0(i64 8, ptr %18) #13
  %30 = load ptr, ptr %9, align 8
  %31 = getelementptr inbounds nuw %struct.zone, ptr %30, i32 0, i32 6
  %32 = load i8, ptr %31, align 8
  %33 = sext i8 %32 to i32
  %34 = icmp eq i32 %33, 122
  br i1 %34, label %35, label %43

35:                                               ; preds = %29
  %36 = getelementptr inbounds [8 x i8], ptr %18, i64 0, i64 0
  %37 = load ptr, ptr %9, align 8
  %38 = getelementptr inbounds nuw %struct.zone, ptr %37, i32 0, i32 3
  %39 = load i64, ptr %38, align 8
  %40 = load i64, ptr %12, align 8
  %41 = add i64 %39, %40
  %42 = call ptr @abbroffset(ptr noundef %36, i64 noundef %41)
  store ptr %42, ptr %10, align 8
  br label %48

43:                                               ; preds = %29
  %44 = load ptr, ptr %10, align 8
  %45 = icmp ne ptr %44, null
  br i1 %45, label %47, label %46

46:                                               ; preds = %43
  store ptr @.str.51, ptr %10, align 8
  br label %47

47:                                               ; preds = %46, %43
  br label %48

48:                                               ; preds = %47, %35
  %49 = load ptr, ptr %8, align 8
  %50 = load ptr, ptr %17, align 8
  %51 = load ptr, ptr %10, align 8
  %52 = call i32 (ptr, ptr, ...) @pg_sprintf(ptr noundef %49, ptr noundef %50, ptr noundef %51)
  call void @llvm.lifetime.end.p0(i64 8, ptr %18) #13
  br label %77

53:                                               ; preds = %6
  %54 = load i8, ptr %11, align 1, !range !6, !noundef !7
  %55 = trunc i8 %54 to i1
  br i1 %55, label %56, label %61

56:                                               ; preds = %53
  %57 = load ptr, ptr %8, align 8
  %58 = load ptr, ptr %15, align 8
  %59 = getelementptr inbounds i8, ptr %58, i64 1
  %60 = call ptr @strcpy(ptr noundef %57, ptr noundef %59) #13
  br label %76

61:                                               ; preds = %53
  %62 = load ptr, ptr %8, align 8
  %63 = load ptr, ptr %17, align 8
  %64 = load ptr, ptr %15, align 8
  %65 = load ptr, ptr %17, align 8
  %66 = ptrtoint ptr %64 to i64
  %67 = ptrtoint ptr %65 to i64
  %68 = sub i64 %66, %67
  call void @llvm.memcpy.p0.p0.i64(ptr align 1 %62, ptr align 1 %63, i64 %68, i1 false)
  %69 = load ptr, ptr %8, align 8
  %70 = load ptr, ptr %15, align 8
  %71 = load ptr, ptr %17, align 8
  %72 = ptrtoint ptr %70 to i64
  %73 = ptrtoint ptr %71 to i64
  %74 = sub i64 %72, %73
  %75 = getelementptr inbounds i8, ptr %69, i64 %74
  store i8 0, ptr %75, align 1
  br label %76

76:                                               ; preds = %61, %56
  br label %77

77:                                               ; preds = %76, %48
  %78 = load ptr, ptr %8, align 8
  %79 = call i64 @strlen(ptr noundef %78) #14
  store i64 %79, ptr %16, align 8
  %80 = load i8, ptr %13, align 1, !range !6, !noundef !7
  %81 = trunc i8 %80 to i1
  br i1 %81, label %84, label %82

82:                                               ; preds = %77
  %83 = load i64, ptr %16, align 8
  store i64 %83, ptr %7, align 8
  store i32 1, ptr %19, align 4
  br label %121

84:                                               ; preds = %77
  %85 = load ptr, ptr %8, align 8
  store ptr %85, ptr %14, align 8
  br label %86

86:                                               ; preds = %91, %84
  %87 = load ptr, ptr %14, align 8
  %88 = load i8, ptr %87, align 1
  %89 = call zeroext i1 @is_alpha(i8 noundef signext %88)
  br i1 %89, label %90, label %94

90:                                               ; preds = %86
  br label %91

91:                                               ; preds = %90
  %92 = load ptr, ptr %14, align 8
  %93 = getelementptr inbounds nuw i8, ptr %92, i32 1
  store ptr %93, ptr %14, align 8
  br label %86, !llvm.loop !56

94:                                               ; preds = %86
  %95 = load i64, ptr %16, align 8
  %96 = icmp ugt i64 %95, 0
  br i1 %96, label %97, label %104

97:                                               ; preds = %94
  %98 = load ptr, ptr %14, align 8
  %99 = load i8, ptr %98, align 1
  %100 = sext i8 %99 to i32
  %101 = icmp eq i32 %100, 0
  br i1 %101, label %102, label %104

102:                                              ; preds = %97
  %103 = load i64, ptr %16, align 8
  store i64 %103, ptr %7, align 8
  store i32 1, ptr %19, align 4
  br label %121

104:                                              ; preds = %97, %94
  %105 = load ptr, ptr %8, align 8
  %106 = load i64, ptr %16, align 8
  %107 = add i64 %106, 2
  %108 = getelementptr inbounds nuw i8, ptr %105, i64 %107
  store i8 0, ptr %108, align 1
  %109 = load ptr, ptr %8, align 8
  %110 = load i64, ptr %16, align 8
  %111 = add i64 %110, 1
  %112 = getelementptr inbounds nuw i8, ptr %109, i64 %111
  store i8 62, ptr %112, align 1
  %113 = load ptr, ptr %8, align 8
  %114 = getelementptr inbounds i8, ptr %113, i64 1
  %115 = load ptr, ptr %8, align 8
  %116 = load i64, ptr %16, align 8
  call void @llvm.memmove.p0.p0.i64(ptr align 1 %114, ptr align 1 %115, i64 %116, i1 false)
  %117 = load ptr, ptr %8, align 8
  %118 = getelementptr inbounds i8, ptr %117, i64 0
  store i8 60, ptr %118, align 1
  %119 = load i64, ptr %16, align 8
  %120 = add i64 %119, 2
  store i64 %120, ptr %7, align 8
  store i32 1, ptr %19, align 4
  br label %121

121:                                              ; preds = %104, %102, %82
  call void @llvm.lifetime.end.p0(i64 8, ptr %17) #13
  call void @llvm.lifetime.end.p0(i64 8, ptr %16) #13
  call void @llvm.lifetime.end.p0(i64 8, ptr %15) #13
  call void @llvm.lifetime.end.p0(i64 8, ptr %14) #13
  %122 = load i64, ptr %7, align 8
  ret i64 %122
}