; Function Attrs: nounwind uwtable
define internal fastcc i64 @doabbr(ptr noundef nonnull %0, ptr noundef readonly captures(none) %1, ptr noundef %2, i1 noundef zeroext %3, i64 noundef %4, i1 noundef zeroext %5) unnamed_addr #0 {
  %7 = alloca [8 x i8], align 1
  %8 = getelementptr inbounds nuw i8, ptr %1, i64 40
  %9 = load ptr, ptr %8, align 8
  %10 = tail call ptr @strchr(ptr noundef nonnull dereferenceable(1) %9, i32 noundef 47) #27
  %11 = icmp eq ptr %10, null
  br i1 %11, label %12, label %55

12:                                               ; preds = %6
  call void @llvm.lifetime.start.p0(i64 8, ptr nonnull %7) #26
  %13 = getelementptr inbounds nuw i8, ptr %1, i64 48
  %14 = load i8, ptr %13, align 8
  %15 = icmp eq i8 %14, 122
  br i1 %15, label %16, label %53

16:                                               ; preds = %12
  %17 = getelementptr inbounds nuw i8, ptr %1, i64 24
  %18 = load i64, ptr %17, align 8
  %19 = add i64 %18, %4
  %spec.select34.i = tail call i64 @llvm.abs.i64(i64 %19, i1 false)
  %20 = srem i64 %spec.select34.i, 60
  %21 = sdiv i64 %spec.select34.i, 60
  %22 = srem i64 %21, 60
  %23 = icmp sgt i64 %spec.select34.i, 359999
  br i1 %23, label %24, label %25

24:                                               ; preds = %16
  tail call void (ptr, ...) @error(ptr noundef nonnull @.str.172)
  br label %abbroffset.exit

25:                                               ; preds = %16
  %26 = icmp slt i64 %19, 0
  %spec.select.i = select i1 %26, i8 45, i8 43
  %27 = sdiv i64 %spec.select34.i, 3600
  %28 = getelementptr inbounds nuw i8, ptr %7, i64 1
  store i8 %spec.select.i, ptr %7, align 1
  %29 = sdiv i64 %spec.select34.i, 36000
  %30 = trunc i64 %29 to i8
  %31 = add i8 %30, 48
  %32 = getelementptr inbounds nuw i8, ptr %7, i64 2
  store i8 %31, ptr %28, align 1
  %33 = srem i64 %27, 10
  %34 = trunc nsw i64 %33 to i8
  %35 = add nsw i8 %34, 48
  %36 = getelementptr inbounds nuw i8, ptr %7, i64 3
  store i8 %35, ptr %32, align 1
  %37 = or i64 %22, %20
  %.not.i = icmp eq i64 %37, 0
  br i1 %.not.i, label %52, label %38

38:                                               ; preds = %25
  %.lhs.trunc.i = trunc nsw i64 %22 to i8
  %39 = sdiv i8 %.lhs.trunc.i, 10
  %40 = add nsw i8 %39, 48
  %41 = getelementptr inbounds nuw i8, ptr %7, i64 4
  store i8 %40, ptr %36, align 1
  %42 = srem i8 %.lhs.trunc.i, 10
  %43 = add nsw i8 %42, 48
  %44 = getelementptr inbounds nuw i8, ptr %7, i64 5
  store i8 %43, ptr %41, align 1
  %.not33.i = icmp eq i64 %20, 0
  br i1 %.not33.i, label %52, label %45

45:                                               ; preds = %38
  %.lhs.trunc37.i = trunc nsw i64 %20 to i8
  %46 = sdiv i8 %.lhs.trunc37.i, 10
  %47 = add nsw i8 %46, 48
  %48 = getelementptr inbounds nuw i8, ptr %7, i64 6
  store i8 %47, ptr %44, align 1
  %49 = srem i8 %.lhs.trunc37.i, 10
  %50 = add nsw i8 %49, 48
  %51 = getelementptr inbounds nuw i8, ptr %7, i64 7
  store i8 %50, ptr %48, align 1
  br label %52

52:                                               ; preds = %45, %38, %25
  %.0.i = phi ptr [ %51, %45 ], [ %44, %38 ], [ %36, %25 ]
  store i8 0, ptr %.0.i, align 1
  br label %abbroffset.exit

53:                                               ; preds = %12
  %.not = icmp eq ptr %2, null
  %spec.store.select = select i1 %.not, ptr @.str.51, ptr %2
  br label %abbroffset.exit

abbroffset.exit:                                  ; preds = %52, %24, %53
  %.038 = phi ptr [ %spec.store.select, %53 ], [ @.str.173, %24 ], [ %7, %52 ]
  %54 = call i32 (ptr, ptr, ...) @pg_sprintf(ptr noundef nonnull %0, ptr noundef nonnull %9, ptr noundef nonnull %.038) #26
  call void @llvm.lifetime.end.p0(i64 8, ptr nonnull %7) #26
  br label %64

55:                                               ; preds = %6
  br i1 %3, label %56, label %59

56:                                               ; preds = %55
  %57 = getelementptr inbounds nuw i8, ptr %10, i64 1
  %58 = tail call ptr @strcpy(ptr noundef nonnull dereferenceable(1) %0, ptr noundef nonnull dereferenceable(1) %57) #26
  br label %64

59:                                               ; preds = %55
  %60 = ptrtoint ptr %10 to i64
  %61 = ptrtoint ptr %9 to i64
  %62 = sub i64 %60, %61
  tail call void @llvm.memcpy.p0.p0.i64(ptr nonnull align 1 %0, ptr nonnull align 1 %9, i64 %62, i1 false)
  %63 = getelementptr inbounds i8, ptr %0, i64 %62
  store i8 0, ptr %63, align 1
  br label %64

64:                                               ; preds = %56, %59, %abbroffset.exit
  %65 = call i64 @strlen(ptr noundef nonnull dereferenceable(1) %0) #27
  br i1 %5, label %.preheader, label %76

.preheader:                                       ; preds = %64, %67
  %.039 = phi ptr [ %68, %67 ], [ %0, %64 ]
  %66 = load i8, ptr %.039, align 1
  switch i8 %66, label %is_alpha.exit [
    i8 65, label %67
    i8 66, label %67
    i8 67, label %67
    i8 68, label %67
    i8 69, label %67
    i8 70, label %67
    i8 71, label %67
    i8 72, label %67
    i8 73, label %67
    i8 74, label %67
    i8 75, label %67
    i8 76, label %67
    i8 77, label %67
    i8 78, label %67
    i8 79, label %67
    i8 80, label %67
    i8 81, label %67
    i8 82, label %67
    i8 83, label %67
    i8 84, label %67
    i8 85, label %67
    i8 86, label %67
    i8 87, label %67
    i8 88, label %67
    i8 89, label %67
    i8 90, label %67
    i8 97, label %67
    i8 98, label %67
    i8 99, label %67
    i8 100, label %67
    i8 101, label %67
    i8 102, label %67
    i8 103, label %67
    i8 104, label %67
    i8 105, label %67
    i8 106, label %67
    i8 107, label %67
    i8 108, label %67
    i8 109, label %67
    i8 110, label %67
    i8 111, label %67
    i8 112, label %67
    i8 113, label %67
    i8 114, label %67
    i8 115, label %67
    i8 116, label %67
    i8 117, label %67
    i8 118, label %67
    i8 119, label %67
    i8 120, label %67
    i8 121, label %67
    i8 122, label %67
  ]

67:                                               ; preds = %.preheader, %.preheader, %.preheader, %.preheader, %.preheader, %.preheader, %.preheader, %.preheader, %.preheader, %.preheader, %.preheader, %.preheader, %.preheader, %.preheader, %.preheader, %.preheader, %.preheader, %.preheader, %.preheader, %.preheader, %.preheader, %.preheader, %.preheader, %.preheader, %.preheader, %.preheader, %.preheader, %.preheader, %.preheader, %.preheader, %.preheader, %.preheader, %.preheader, %.preheader, %.preheader, %.preheader, %.preheader, %.preheader, %.preheader, %.preheader, %.preheader, %.preheader, %.preheader, %.preheader, %.preheader, %.preheader, %.preheader, %.preheader, %.preheader, %.preheader, %.preheader, %.preheader
  %68 = getelementptr inbounds nuw i8, ptr %.039, i64 1
  br label %.preheader, !llvm.loop !87

is_alpha.exit:                                    ; preds = %.preheader
  %.not42 = icmp ne i64 %65, 0
  %69 = icmp eq i8 %66, 0
  %or.cond = and i1 %.not42, %69
  br i1 %or.cond, label %76, label %70

70:                                               ; preds = %is_alpha.exit
  %71 = add i64 %65, 2
  %72 = getelementptr inbounds nuw i8, ptr %0, i64 %71
  store i8 0, ptr %72, align 1
  %73 = getelementptr i8, ptr %0, i64 %65
  %74 = getelementptr i8, ptr %73, i64 1
  store i8 62, ptr %74, align 1
  %75 = getelementptr inbounds nuw i8, ptr %0, i64 1
  call void @llvm.memmove.p0.p0.i64(ptr nonnull align 1 %75, ptr nonnull align 1 %0, i64 %65, i1 false)
  store i8 60, ptr %0, align 1
  br label %76

76:                                               ; preds = %is_alpha.exit, %64, %70
  %.0 = phi i64 [ %71, %70 ], [ %65, %64 ], [ %65, %is_alpha.exit ]
  ret i64 %.0
}